; Function Attrs: mustprogress uwtable
define hidden noundef zeroext i1 @_ZN11proof_utils9is_closedER11ast_managerP3app(ptr noundef nonnull align 8 dereferenceable(976) %0, ptr noundef %1) local_unnamed_addr #3 align 2 personality ptr @__gxx_personality_v0 {
  %3 = alloca %class.proof_is_closed, align 8
  call void @llvm.lifetime.start.p0(i64 72, ptr nonnull %3) #20
  store ptr %0, ptr %3, align 8, !tbaa !12
  %4 = getelementptr inbounds nuw i8, ptr %3, i64 8
  store ptr null, ptr %4, align 8, !tbaa !112
  %5 = getelementptr inbounds nuw i8, ptr %3, i64 16
  store ptr getelementptr inbounds nuw inrange(-16, 32) (i8, ptr @_ZTV8ast_mark, i64 16), ptr %5, align 8, !tbaa !10
  %6 = getelementptr inbounds nuw i8, ptr %3, i64 32
  call void @llvm.memset.p0.i64(ptr noundef nonnull align 8 dereferenceable(16) %6, i8 0, i64 16, i1 false)
  %7 = getelementptr inbounds nuw i8, ptr %3, i64 56
  call void @llvm.memset.p0.i64(ptr noundef nonnull align 8 dereferenceable(16) %7, i8 0, i64 16, i1 false)
  %8 = invoke noundef zeroext i1 @_ZN15proof_is_closed5checkEP3app(ptr noundef nonnull align 8 dereferenceable(72) %3, ptr noundef %1)
          to label %.noexc unwind label %32

.noexc:                                           ; preds = %2
  %9 = load ptr, ptr %4, align 8, !tbaa !112
  %.not.i.i.i = icmp eq ptr %9, null
  br i1 %.not.i.i.i, label %_ZN15proof_is_closed5resetEv.exit.i, label %10

10:                                               ; preds = %.noexc
  %11 = getelementptr inbounds i8, ptr %9, i64 -4
  store i32 0, ptr %11, align 4, !tbaa !14
  br label %_ZN15proof_is_closed5resetEv.exit.i

_ZN15proof_is_closed5resetEv.exit.i:              ; preds = %10, %.noexc
  invoke void @_ZN8ast_mark5resetEv(ptr noundef nonnull align 8 dereferenceable(56) %5)
          to label %_ZN15proof_is_closedclEP3app.exit unwind label %32

_ZN15proof_is_closedclEP3app.exit:                ; preds = %_ZN15proof_is_closed5resetEv.exit.i
  store ptr getelementptr inbounds nuw inrange(-16, 32) (i8, ptr @_ZTV8ast_mark, i64 16), ptr %5, align 8, !tbaa !10
  %12 = getelementptr inbounds nuw i8, ptr %3, i64 64
  %13 = load ptr, ptr %12, align 8, !tbaa !18
  %14 = icmp eq ptr %13, null
  br i1 %14, label %_ZN8obj_markI4decl10bit_vectorN8ast_mark9decl2uintEED2Ev.exit.i.i, label %15

15:                                               ; preds = %_ZN15proof_is_closedclEP3app.exit
  invoke void @_ZN6memory10deallocateEPv(ptr noundef nonnull %13)
          to label %_ZN8obj_markI4decl10bit_vectorN8ast_mark9decl2uintEED2Ev.exit.i.i unwind label %16

16:                                               ; preds = %15
  %17 = landingpad { ptr, i32 }
          catch ptr null
  %18 = extractvalue { ptr, i32 } %17, 0
  call void @__clang_call_terminate(ptr %18) #21
  unreachable

_ZN8obj_markI4decl10bit_vectorN8ast_mark9decl2uintEED2Ev.exit.i.i: ; preds = %15, %_ZN15proof_is_closedclEP3app.exit
  %19 = getelementptr inbounds nuw i8, ptr %3, i64 40
  %20 = load ptr, ptr %19, align 8, !tbaa !18
  %21 = icmp eq ptr %20, null
  br i1 %21, label %_ZN8ast_markD2Ev.exit.i, label %22

22:                                               ; preds = %_ZN8obj_markI4decl10bit_vectorN8ast_mark9decl2uintEED2Ev.exit.i.i
  invoke void @_ZN6memory10deallocateEPv(ptr noundef nonnull %20)
          to label %_ZN8ast_markD2Ev.exit.i unwind label %23

23:                                               ; preds = %22
  %24 = landingpad { ptr, i32 }
          catch ptr null
  %25 = extractvalue { ptr, i32 } %24, 0
  call void @__clang_call_terminate(ptr %25) #21
  unreachable

_ZN8ast_markD2Ev.exit.i:                          ; preds = %22, %_ZN8obj_markI4decl10bit_vectorN8ast_mark9decl2uintEED2Ev.exit.i.i
  %26 = load ptr, ptr %4, align 8, !tbaa !112
  %.not.i.i.i4 = icmp eq ptr %26, null
  br i1 %.not.i.i.i4, label %_ZN15proof_is_closedD2Ev.exit, label %27

27:                                               ; preds = %_ZN8ast_markD2Ev.exit.i
  %28 = getelementptr inbounds i8, ptr %26, i64 -8
  invoke void @_ZN6memory10deallocateEPv(ptr noundef nonnull %28)
          to label %_ZN15proof_is_closedD2Ev.exit unwind label %29

29:                                               ; preds = %27
  %30 = landingpad { ptr, i32 }
          catch ptr null
  %31 = extractvalue { ptr, i32 } %30, 0
  call void @__clang_call_terminate(ptr %31) #21
  unreachable

_ZN15proof_is_closedD2Ev.exit:                    ; preds = %_ZN8ast_markD2Ev.exit.i, %27
  call void @llvm.lifetime.end.p0(i64 72, ptr nonnull %3) #20
  ret i1 %8

32:                                               ; preds = %_ZN15proof_is_closed5resetEv.exit.i, %2
  %33 = landingpad { ptr, i32 }
          cleanup
  call void @_ZN15proof_is_closedD2Ev(ptr noundef nonnull align 8 dereferenceable(72) %3) #20
  call void @llvm.lifetime.end.p0(i64 72, ptr nonnull %3) #20
  resume { ptr, i32 } %33
}